target datalayout = "e-m:e-p270:32:32-p271:32:32-p272:64:64-i64:64-i128:128-f80:128-n8:16:32:64-S128"
target triple = "x86_64-pc-linux-gnu"

%struct.AVFilterChannelLayouts = type { ptr, i32, i8, i8, i32, ptr }

; Function Attrs: nounwind uwtable
define i32 @ff_channel_layouts_ref(ptr noundef %0, ptr noundef %1) #0 {
  %3 = alloca i32, align 4
  %4 = alloca ptr, align 8
  %5 = alloca ptr, align 8
  %6 = alloca ptr, align 8
  %7 = alloca i32, align 4
  store ptr %0, ptr %4, align 8, !tbaa !38
  store ptr %1, ptr %5, align 8, !tbaa !52
  call void @llvm.lifetime.start.p0(i64 8, ptr %6) #7
  %8 = load ptr, ptr %4, align 8, !tbaa !38
  %9 = icmp ne ptr %8, null
  br i1 %9, label %11, label %10

10:                                               ; preds = %2
  store i32 -12, ptr %3, align 4
  store i32 1, ptr %7, align 4
  br label %40

11:                                               ; preds = %2
  %12 = load ptr, ptr %4, align 8, !tbaa !38
  %13 = getelementptr inbounds nuw %struct.AVFilterChannelLayouts, ptr %12, i32 0, i32 5
  %14 = load ptr, ptr %13, align 8, !tbaa !55
  %15 = load ptr, ptr %4, align 8, !tbaa !38
  %16 = getelementptr inbounds nuw %struct.AVFilterChannelLayouts, ptr %15, i32 0, i32 4
  %17 = load i32, ptr %16, align 8, !tbaa !54
  %18 = add i32 %17, 1
  %19 = zext i32 %18 to i64
  %20 = call ptr @av_realloc_array(ptr noundef %14, i64 noundef 8, i64 noundef %19)
  store ptr %20, ptr %6, align 8, !tbaa !71
  %21 = load ptr, ptr %6, align 8, !tbaa !71
  %22 = icmp ne ptr %21, null
  br i1 %22, label %24, label %23

23:                                               ; preds = %11
  call void @ff_channel_layouts_unref(ptr noundef %4)
  store i32 -12, ptr %3, align 4
  store i32 1, ptr %7, align 4
  br label %40

24:                                               ; preds = %11
  %25 = load ptr, ptr %6, align 8, !tbaa !71
  %26 = load ptr, ptr %4, align 8, !tbaa !38
  %27 = getelementptr inbounds nuw %struct.AVFilterChannelLayouts, ptr %26, i32 0, i32 5
  store ptr %25, ptr %27, align 8, !tbaa !55
  %28 = load ptr, ptr %5, align 8, !tbaa !52
  %29 = load ptr, ptr %4, align 8, !tbaa !38
  %30 = getelementptr inbounds nuw %struct.AVFilterChannelLayouts, ptr %29, i32 0, i32 5
  %31 = load ptr, ptr %30, align 8, !tbaa !55
  %32 = load ptr, ptr %4, align 8, !tbaa !38
  %33 = getelementptr inbounds nuw %struct.AVFilterChannelLayouts, ptr %32, i32 0, i32 4
  %34 = load i32, ptr %33, align 8, !tbaa !54
  %35 = add i32 %34, 1
  store i32 %35, ptr %33, align 8, !tbaa !54
  %36 = zext i32 %34 to i64
  %37 = getelementptr inbounds nuw ptr, ptr %31, i64 %36
  store ptr %28, ptr %37, align 8, !tbaa !52
  %38 = load ptr, ptr %4, align 8, !tbaa !38
  %39 = load ptr, ptr %5, align 8, !tbaa !52
  store ptr %38, ptr %39, align 8, !tbaa !38
  store i32 0, ptr %3, align 4
  store i32 1, ptr %7, align 4
  br label %40

40:                                               ; preds = %24, %23, %10
  call void @llvm.lifetime.end.p0(i64 8, ptr %6) #7
  %41 = load i32, ptr %3, align 4
  ret i32 %41
}