; Function Attrs: nounwind uwtable
define range(i32 -12, 1) i32 @ff_channel_layouts_ref(ptr noundef %0, ptr noundef %1) local_unnamed_addr #3 {
  %3 = alloca ptr, align 8
  store ptr %0, ptr %3, align 8, !tbaa !33
  %.not = icmp eq ptr %0, null
  br i1 %.not, label %18, label %4

4:                                                ; preds = %2
  %5 = getelementptr inbounds nuw i8, ptr %0, i64 24
  %6 = load ptr, ptr %5, align 8, !tbaa !47
  %7 = getelementptr inbounds nuw i8, ptr %0, i64 16
  %8 = load i32, ptr %7, align 8, !tbaa !46
  %9 = add i32 %8, 1
  %10 = zext i32 %9 to i64
  %11 = tail call ptr @av_realloc_array(ptr noundef %6, i64 noundef 8, i64 noundef %10) #10
  %.not6 = icmp eq ptr %11, null
  br i1 %.not6, label %12, label %13

12:                                               ; preds = %4
  call void @ff_channel_layouts_unref(ptr noundef nonnull %3)
  br label %18

13:                                               ; preds = %4
  store ptr %11, ptr %5, align 8, !tbaa !47
  %14 = load i32, ptr %7, align 8, !tbaa !46
  %15 = add i32 %14, 1
  store i32 %15, ptr %7, align 8, !tbaa !46
  %16 = zext i32 %14 to i64
  %17 = getelementptr inbounds nuw ptr, ptr %11, i64 %16
  store ptr %1, ptr %17, align 8, !tbaa !48
  store ptr %0, ptr %1, align 8, !tbaa !33
  br label %18

18:                                               ; preds = %2, %13, %12
  %.0 = phi i32 [ 0, %13 ], [ -12, %12 ], [ -12, %2 ]
  ret i32 %.0
}